target datalayout = "e-m:e-p270:32:32-p271:32:32-p272:64:64-i64:64-i128:128-f80:128-n8:16:32:64-S128"
target triple = "x86_64-pc-linux-gnu"

%struct.t_trxstatus = type { i32, i32, float, float, ptr, ptr, ptr, i32, ptr }

; Function Attrs: mustprogress uwtable
define noundef zeroext i1 @_Z24trxio_should_print_countPK16gmx_output_env_tP11t_trxstatus(ptr noundef %0, ptr noundef %1) #2 {
  %3 = alloca ptr, align 8
  %4 = alloca ptr, align 8
  store ptr %0, ptr %3, align 8
  store ptr %1, ptr %4, align 8
  %5 = load ptr, ptr %4, align 8
  %6 = getelementptr inbounds %struct.t_trxstatus, ptr %5, i32 0, i32 1
  %7 = load i32, ptr %6, align 4
  %8 = icmp slt i32 %7, 20
  br i1 %8, label %15, label %9

9:                                                ; preds = %2
  %10 = load ptr, ptr %4, align 8
  %11 = getelementptr inbounds %struct.t_trxstatus, ptr %10, i32 0, i32 1
  %12 = load i32, ptr %11, align 4
  %13 = srem i32 %12, 10
  %14 = icmp eq i32 %13, 0
  br i1 %14, label %15, label %41

15:                                               ; preds = %9, %2
  %16 = load ptr, ptr %4, align 8
  %17 = getelementptr inbounds %struct.t_trxstatus, ptr %16, i32 0, i32 1
  %18 = load i32, ptr %17, align 4
  %19 = icmp slt i32 %18, 200
  br i1 %19, label %26, label %20

20:                                               ; preds = %15
  %21 = load ptr, ptr %4, align 8
  %22 = getelementptr inbounds %struct.t_trxstatus, ptr %21, i32 0, i32 1
  %23 = load i32, ptr %22, align 4
  %24 = srem i32 %23, 100
  %25 = icmp eq i32 %24, 0
  br i1 %25, label %26, label %41

26:                                               ; preds = %20, %15
  %27 = load ptr, ptr %4, align 8
  %28 = getelementptr inbounds %struct.t_trxstatus, ptr %27, i32 0, i32 1
  %29 = load i32, ptr %28, align 4
  %30 = icmp slt i32 %29, 2000
  br i1 %30, label %37, label %31

31:                                               ; preds = %26
  %32 = load ptr, ptr %4, align 8
  %33 = getelementptr inbounds %struct.t_trxstatus, ptr %32, i32 0, i32 1
  %34 = load i32, ptr %33, align 4
  %35 = srem i32 %34, 1000
  %36 = icmp eq i32 %35, 0
  br i1 %36, label %37, label %41

37:                                               ; preds = %31, %26
  %38 = load ptr, ptr %3, align 8
  %39 = call noundef i32 @_Z38output_env_get_trajectory_io_verbosityPK16gmx_output_env_t(ptr noundef %38)
  %40 = icmp ne i32 %39, 0
  br label %41

41:                                               ; preds = %37, %31, %20, %9
  %42 = phi i1 [ false, %31 ], [ false, %20 ], [ false, %9 ], [ %40, %37 ]
  ret i1 %42
}