; Function Attrs: mustprogress uwtable
define noundef zeroext i1 @_Z24trxio_should_print_countPK16gmx_output_env_tP11t_trxstatus(ptr noundef %0, ptr nocapture noundef readonly %1) local_unnamed_addr #2 {
  %3 = getelementptr inbounds i8, ptr %1, i64 4
  %4 = load i32, ptr %3, align 4
  %5 = icmp slt i32 %4, 20
  %6 = urem i32 %4, 10
  %7 = icmp eq i32 %6, 0
  %or.cond = or i1 %5, %7
  br i1 %or.cond, label %8, label %19

8:                                                ; preds = %2
  %9 = icmp slt i32 %4, 200
  %10 = urem i32 %4, 100
  %11 = icmp eq i32 %10, 0
  %or.cond11 = or i1 %9, %11
  br i1 %or.cond11, label %12, label %19

12:                                               ; preds = %8
  %13 = icmp slt i32 %4, 2000
  %14 = urem i32 %4, 1000
  %15 = icmp eq i32 %14, 0
  %or.cond13 = or i1 %13, %15
  br i1 %or.cond13, label %16, label %19

16:                                               ; preds = %12
  %17 = tail call noundef i32 @_Z38output_env_get_trajectory_io_verbosityPK16gmx_output_env_t(ptr noundef %0)
  %18 = icmp ne i32 %17, 0
  br label %19

19:                                               ; preds = %12, %8, %2, %16
  %20 = phi i1 [ %18, %16 ], [ false, %2 ], [ false, %8 ], [ false, %12 ]
  ret i1 %20
}